; Function Attrs: nounwind uwtable
define ptr @l_Lean_Parser_withOpenDecl(ptr noundef %0) local_unnamed_addr #1 {
  %.val = load i32, ptr %0, align 4, !tbaa !4
  %2 = icmp eq i32 %.val, 1
  br i1 %2, label %3, label %14

3:                                                ; preds = %1
  %4 = getelementptr inbounds nuw i8, ptr %0, i64 16
  %5 = load ptr, ptr %4, align 8, !tbaa !9
  tail call void @lean_inc_heartbeat() #6
  %6 = tail call noalias ptr @mi_malloc_small(i64 noundef 32) #6
  %7 = icmp eq ptr %6, null
  br i1 %7, label %8, label %lean_alloc_closure.exit

8:                                                ; preds = %3
  tail call void @lean_internal_panic_out_of_memory() #7
  unreachable

lean_alloc_closure.exit:                          ; preds = %3
  %9 = getelementptr inbounds nuw i8, ptr %6, i64 4
  store i32 1, ptr %6, align 4, !tbaa !4
  store i32 -184549344, ptr %9, align 4
  %10 = getelementptr inbounds nuw i8, ptr %6, i64 8
  store ptr @l_Lean_Parser_withOpenDeclFn, ptr %10, align 8, !tbaa !9
  %11 = getelementptr inbounds nuw i8, ptr %6, i64 16
  store i16 3, ptr %11, align 8, !tbaa !14
  %12 = getelementptr inbounds nuw i8, ptr %6, i64 18
  store i16 1, ptr %12, align 2, !tbaa !14
  %13 = getelementptr inbounds nuw i8, ptr %6, i64 24
  store ptr %5, ptr %13, align 8, !tbaa !9
  store ptr %6, ptr %4, align 8, !tbaa !9
  br label %58

14:                                               ; preds = %1
  %15 = getelementptr inbounds nuw i8, ptr %0, i64 8
  %16 = load ptr, ptr %15, align 8, !tbaa !9
  %17 = getelementptr inbounds nuw i8, ptr %0, i64 16
  %18 = load ptr, ptr %17, align 8, !tbaa !9
  %19 = ptrtoint ptr %18 to i64
  %20 = and i64 %19, 1
  %.not = icmp eq i64 %20, 0
  br i1 %.not, label %21, label %lean_inc.exit20

21:                                               ; preds = %14
  %.val.i = load i32, ptr %18, align 4, !tbaa !4
  %22 = icmp sgt i32 %.val.i, 0
  br i1 %22, label %23, label %25, !prof !11

23:                                               ; preds = %21
  %24 = add nuw i32 %.val.i, 1
  store i32 %24, ptr %18, align 4, !tbaa !4
  br label %lean_inc.exit20

25:                                               ; preds = %21
  %.not.i21 = icmp eq i32 %.val.i, 0
  br i1 %.not.i21, label %lean_inc.exit20, label %26

26:                                               ; preds = %25
  tail call void @lean_inc_ref_cold(ptr noundef nonnull %18) #6
  br label %lean_inc.exit20

lean_inc.exit20:                                  ; preds = %26, %25, %23, %14
  %27 = ptrtoint ptr %16 to i64
  %28 = and i64 %27, 1
  %.not26 = icmp eq i64 %28, 0
  br i1 %.not26, label %29, label %lean_inc.exit

29:                                               ; preds = %lean_inc.exit20
  %.val.i22 = load i32, ptr %16, align 4, !tbaa !4
  %30 = icmp sgt i32 %.val.i22, 0
  br i1 %30, label %31, label %33, !prof !11

31:                                               ; preds = %29
  %32 = add nuw i32 %.val.i22, 1
  store i32 %32, ptr %16, align 4, !tbaa !4
  br label %lean_inc.exit

33:                                               ; preds = %29
  %.not.i23 = icmp eq i32 %.val.i22, 0
  br i1 %.not.i23, label %lean_inc.exit, label %34

34:                                               ; preds = %33
  tail call void @lean_inc_ref_cold(ptr noundef nonnull %16) #6
  br label %lean_inc.exit

lean_inc.exit:                                    ; preds = %34, %33, %31, %lean_inc.exit20
  %35 = ptrtoint ptr %0 to i64
  %36 = and i64 %35, 1
  %.not27 = icmp eq i64 %36, 0
  br i1 %.not27, label %37, label %lean_dec.exit

37:                                               ; preds = %lean_inc.exit
  %38 = load i32, ptr %0, align 4, !tbaa !4
  %39 = icmp sgt i32 %38, 1
  br i1 %39, label %40, label %42, !prof !11

40:                                               ; preds = %37
  %41 = add nsw i32 %38, -1
  store i32 %41, ptr %0, align 4, !tbaa !4
  br label %lean_dec.exit

42:                                               ; preds = %37
  %.not.i = icmp eq i32 %38, 0
  br i1 %.not.i, label %lean_dec.exit, label %43

43:                                               ; preds = %42
  tail call void @lean_dec_ref_cold(ptr noundef nonnull %0) #6
  br label %lean_dec.exit

lean_dec.exit:                                    ; preds = %43, %42, %40, %lean_inc.exit
  tail call void @lean_inc_heartbeat() #6
  %44 = tail call noalias ptr @mi_malloc_small(i64 noundef 32) #6
  %45 = icmp eq ptr %44, null
  br i1 %45, label %46, label %lean_alloc_closure.exit25

46:                                               ; preds = %lean_dec.exit
  tail call void @lean_internal_panic_out_of_memory() #7
  unreachable

lean_alloc_closure.exit25:                        ; preds = %lean_dec.exit
  %47 = getelementptr inbounds nuw i8, ptr %44, i64 4
  store i32 1, ptr %44, align 4, !tbaa !4
  store i32 -184549344, ptr %47, align 4
  %48 = getelementptr inbounds nuw i8, ptr %44, i64 8
  store ptr @l_Lean_Parser_withOpenDeclFn, ptr %48, align 8, !tbaa !9
  %49 = getelementptr inbounds nuw i8, ptr %44, i64 16
  store i16 3, ptr %49, align 8, !tbaa !14
  %50 = getelementptr inbounds nuw i8, ptr %44, i64 18
  store i16 1, ptr %50, align 2, !tbaa !14
  %51 = getelementptr inbounds nuw i8, ptr %44, i64 24
  store ptr %18, ptr %51, align 8, !tbaa !9
  tail call void @lean_inc_heartbeat() #6
  %52 = tail call noalias ptr @mi_malloc_small(i64 noundef 24) #6
  %53 = icmp eq ptr %52, null
  br i1 %53, label %54, label %lean_alloc_ctor.exit

54:                                               ; preds = %lean_alloc_closure.exit25
  tail call void @lean_internal_panic_out_of_memory() #7
  unreachable

lean_alloc_ctor.exit:                             ; preds = %lean_alloc_closure.exit25
  %55 = getelementptr inbounds nuw i8, ptr %52, i64 4
  store i32 1, ptr %52, align 4, !tbaa !4
  store i32 131096, ptr %55, align 4
  %56 = getelementptr inbounds nuw i8, ptr %52, i64 8
  store ptr %16, ptr %56, align 8, !tbaa !9
  %57 = getelementptr inbounds nuw i8, ptr %52, i64 16
  store ptr %44, ptr %57, align 8, !tbaa !9
  br label %58

58:                                               ; preds = %lean_alloc_ctor.exit, %lean_alloc_closure.exit
  %.0 = phi ptr [ %0, %lean_alloc_closure.exit ], [ %52, %lean_alloc_ctor.exit ]
  ret ptr %.0
}